target datalayout = "e-m:e-p270:32:32-p271:32:32-p272:64:64-i64:64-i128:128-f80:128-n8:16:32:64-S128"
target triple = "x86_64-pc-linux-gnu"

%class.dtObstacleAvoidanceDebugData = type { i32, i32, ptr, ptr, ptr, ptr, ptr, ptr, ptr }

@.str.1 = private unnamed_addr constant [158 x i8] c"generated/home/dtcxzyw/WorkSpace/Projects/compilers/llvm-opt-benchmark/bench/recastnavigation/recastnavigation/DetourCrowd/Source/DetourObstacleAvoidance.cpp\00", align 1
@.str.2 = private unnamed_addr constant [6 x i8] c"m_vel\00", align 1
@.str.3 = private unnamed_addr constant [8 x i8] c"m_ssize\00", align 1
@.str.4 = private unnamed_addr constant [6 x i8] c"m_pen\00", align 1
@.str.5 = private unnamed_addr constant [7 x i8] c"m_vpen\00", align 1
@.str.6 = private unnamed_addr constant [8 x i8] c"m_vcpen\00", align 1
@.str.7 = private unnamed_addr constant [7 x i8] c"m_spen\00", align 1
@.str.8 = private unnamed_addr constant [7 x i8] c"m_tpen\00", align 1

; Function Attrs: mustprogress nounwind uwtable
define linkonce_odr void @_Z7dtVcopyPfPKf(ptr noundef %0, ptr noundef %1) #2 comdat {
  %3 = alloca ptr, align 8
  %4 = alloca ptr, align 8
  store ptr %0, ptr %3, align 8
  store ptr %1, ptr %4, align 8
  %5 = load ptr, ptr %4, align 8
  %6 = getelementptr inbounds float, ptr %5, i64 0
  %7 = load float, ptr %6, align 4
  %8 = load ptr, ptr %3, align 8
  %9 = getelementptr inbounds float, ptr %8, i64 0
  store float %7, ptr %9, align 4
  %10 = load ptr, ptr %4, align 8
  %11 = getelementptr inbounds float, ptr %10, i64 1
  %12 = load float, ptr %11, align 4
  %13 = load ptr, ptr %3, align 8
  %14 = getelementptr inbounds float, ptr %13, i64 1
  store float %12, ptr %14, align 4
  %15 = load ptr, ptr %4, align 8
  %16 = getelementptr inbounds float, ptr %15, i64 2
  %17 = load float, ptr %16, align 4
  %18 = load ptr, ptr %3, align 8
  %19 = getelementptr inbounds float, ptr %18, i64 2
  store float %17, ptr %19, align 4
  ret void
}

; Function Attrs: mustprogress uwtable
define void @_ZN28dtObstacleAvoidanceDebugData9addSampleEPKfffffff(ptr noundef nonnull align 8 dereferenceable(64) %0, ptr noundef %1, float noundef %2, float noundef %3, float noundef %4, float noundef %5, float noundef %6, float noundef %7) #0 align 2 {
  %9 = alloca ptr, align 8
  %10 = alloca ptr, align 8
  %11 = alloca float, align 4
  %12 = alloca float, align 4
  %13 = alloca float, align 4
  %14 = alloca float, align 4
  %15 = alloca float, align 4
  %16 = alloca float, align 4
  %17 = alloca ptr, align 8
  %18 = alloca ptr, align 8
  %19 = alloca ptr, align 8
  %20 = alloca ptr, align 8
  %21 = alloca ptr, align 8
  %22 = alloca ptr, align 8
  %23 = alloca ptr, align 8
  store ptr %0, ptr %9, align 8
  store ptr %1, ptr %10, align 8
  store float %2, ptr %11, align 4
  store float %3, ptr %12, align 4
  store float %4, ptr %13, align 4
  store float %5, ptr %14, align 4
  store float %6, ptr %15, align 4
  store float %7, ptr %16, align 4
  %24 = load ptr, ptr %9, align 8
  %25 = getelementptr inbounds %class.dtObstacleAvoidanceDebugData, ptr %24, i32 0, i32 0
  %26 = load i32, ptr %25, align 8
  %27 = getelementptr inbounds %class.dtObstacleAvoidanceDebugData, ptr %24, i32 0, i32 1
  %28 = load i32, ptr %27, align 4
  %29 = icmp sge i32 %26, %28
  br i1 %29, label %30, label %31

30:                                               ; preds = %8
  br label %169

31:                                               ; preds = %8
  %32 = call noundef ptr @_Z21dtAssertFailGetCustomv()
  store ptr %32, ptr %17, align 8
  %33 = load ptr, ptr %17, align 8
  %34 = icmp eq ptr %33, null
  br i1 %34, label %35, label %36

35:                                               ; preds = %31
  br label %43

36:                                               ; preds = %31
  %37 = getelementptr inbounds %class.dtObstacleAvoidanceDebugData, ptr %24, i32 0, i32 2
  %38 = load ptr, ptr %37, align 8
  %39 = icmp ne ptr %38, null
  br i1 %39, label %42, label %40

40:                                               ; preds = %36
  %41 = load ptr, ptr %17, align 8
  call void %41(ptr noundef @.str.2, ptr noundef @.str.1, i32 noundef 151)
  br label %42

42:                                               ; preds = %40, %36
  br label %43

43:                                               ; preds = %42, %35
  %44 = call noundef ptr @_Z21dtAssertFailGetCustomv()
  store ptr %44, ptr %18, align 8
  %45 = load ptr, ptr %18, align 8
  %46 = icmp eq ptr %45, null
  br i1 %46, label %47, label %48

47:                                               ; preds = %43
  br label %55

48:                                               ; preds = %43
  %49 = getelementptr inbounds %class.dtObstacleAvoidanceDebugData, ptr %24, i32 0, i32 3
  %50 = load ptr, ptr %49, align 8
  %51 = icmp ne ptr %50, null
  br i1 %51, label %54, label %52

52:                                               ; preds = %48
  %53 = load ptr, ptr %18, align 8
  call void %53(ptr noundef @.str.3, ptr noundef @.str.1, i32 noundef 152)
  br label %54

54:                                               ; preds = %52, %48
  br label %55

55:                                               ; preds = %54, %47
  %56 = call noundef ptr @_Z21dtAssertFailGetCustomv()
  store ptr %56, ptr %19, align 8
  %57 = load ptr, ptr %19, align 8
  %58 = icmp eq ptr %57, null
  br i1 %58, label %59, label %60

59:                                               ; preds = %55
  br label %67

60:                                               ; preds = %55
  %61 = getelementptr inbounds %class.dtObstacleAvoidanceDebugData, ptr %24, i32 0, i32 4
  %62 = load ptr, ptr %61, align 8
  %63 = icmp ne ptr %62, null
  br i1 %63, label %66, label %64

64:                                               ; preds = %60
  %65 = load ptr, ptr %19, align 8
  call void %65(ptr noundef @.str.4, ptr noundef @.str.1, i32 noundef 153)
  br label %66

66:                                               ; preds = %64, %60
  br label %67

67:                                               ; preds = %66, %59
  %68 = call noundef ptr @_Z21dtAssertFailGetCustomv()
  store ptr %68, ptr %20, align 8
  %69 = load ptr, ptr %20, align 8
  %70 = icmp eq ptr %69, null
  br i1 %70, label %71, label %72

71:                                               ; preds = %67
  br label %79

72:                                               ; preds = %67
  %73 = getelementptr inbounds %class.dtObstacleAvoidanceDebugData, ptr %24, i32 0, i32 5
  %74 = load ptr, ptr %73, align 8
  %75 = icmp ne ptr %74, null
  br i1 %75, label %78, label %76

76:                                               ; preds = %72
  %77 = load ptr, ptr %20, align 8
  call void %77(ptr noundef @.str.5, ptr noundef @.str.1, i32 noundef 154)
  br label %78

78:                                               ; preds = %76, %72
  br label %79

79:                                               ; preds = %78, %71
  %80 = call noundef ptr @_Z21dtAssertFailGetCustomv()
  store ptr %80, ptr %21, align 8
  %81 = load ptr, ptr %21, align 8
  %82 = icmp eq ptr %81, null
  br i1 %82, label %83, label %84

83:                                               ; preds = %79
  br label %91

84:                                               ; preds = %79
  %85 = getelementptr inbounds %class.dtObstacleAvoidanceDebugData, ptr %24, i32 0, i32 6
  %86 = load ptr, ptr %85, align 8
  %87 = icmp ne ptr %86, null
  br i1 %87, label %90, label %88

88:                                               ; preds = %84
  %89 = load ptr, ptr %21, align 8
  call void %89(ptr noundef @.str.6, ptr noundef @.str.1, i32 noundef 155)
  br label %90

90:                                               ; preds = %88, %84
  br label %91

91:                                               ; preds = %90, %83
  %92 = call noundef ptr @_Z21dtAssertFailGetCustomv()
  store ptr %92, ptr %22, align 8
  %93 = load ptr, ptr %22, align 8
  %94 = icmp eq ptr %93, null
  br i1 %94, label %95, label %96

95:                                               ; preds = %91
  br label %103

96:                                               ; preds = %91
  %97 = getelementptr inbounds %class.dtObstacleAvoidanceDebugData, ptr %24, i32 0, i32 7
  %98 = load ptr, ptr %97, align 8
  %99 = icmp ne ptr %98, null
  br i1 %99, label %102, label %100

100:                                              ; preds = %96
  %101 = load ptr, ptr %22, align 8
  call void %101(ptr noundef @.str.7, ptr noundef @.str.1, i32 noundef 156)
  br label %102

102:                                              ; preds = %100, %96
  br label %103

103:                                              ; preds = %102, %95
  %104 = call noundef ptr @_Z21dtAssertFailGetCustomv()
  store ptr %104, ptr %23, align 8
  %105 = load ptr, ptr %23, align 8
  %106 = icmp eq ptr %105, null
  br i1 %106, label %107, label %108

107:                                              ; preds = %103
  br label %115

108:                                              ; preds = %103
  %109 = getelementptr inbounds %class.dtObstacleAvoidanceDebugData, ptr %24, i32 0, i32 8
  %110 = load ptr, ptr %109, align 8
  %111 = icmp ne ptr %110, null
  br i1 %111, label %114, label %112

112:                                              ; preds = %108
  %113 = load ptr, ptr %23, align 8
  call void %113(ptr noundef @.str.8, ptr noundef @.str.1, i32 noundef 157)
  br label %114

114:                                              ; preds = %112, %108
  br label %115

115:                                              ; preds = %114, %107
  %116 = getelementptr inbounds %class.dtObstacleAvoidanceDebugData, ptr %24, i32 0, i32 2
  %117 = load ptr, ptr %116, align 8
  %118 = getelementptr inbounds %class.dtObstacleAvoidanceDebugData, ptr %24, i32 0, i32 0
  %119 = load i32, ptr %118, align 8
  %120 = mul nsw i32 %119, 3
  %121 = sext i32 %120 to i64
  %122 = getelementptr inbounds float, ptr %117, i64 %121
  %123 = load ptr, ptr %10, align 8
  call void @_Z7dtVcopyPfPKf(ptr noundef %122, ptr noundef %123)
  %124 = load float, ptr %11, align 4
  %125 = getelementptr inbounds %class.dtObstacleAvoidanceDebugData, ptr %24, i32 0, i32 3
  %126 = load ptr, ptr %125, align 8
  %127 = getelementptr inbounds %class.dtObstacleAvoidanceDebugData, ptr %24, i32 0, i32 0
  %128 = load i32, ptr %127, align 8
  %129 = sext i32 %128 to i64
  %130 = getelementptr inbounds float, ptr %126, i64 %129
  store float %124, ptr %130, align 4
  %131 = load float, ptr %12, align 4
  %132 = getelementptr inbounds %class.dtObstacleAvoidanceDebugData, ptr %24, i32 0, i32 4
  %133 = load ptr, ptr %132, align 8
  %134 = getelementptr inbounds %class.dtObstacleAvoidanceDebugData, ptr %24, i32 0, i32 0
  %135 = load i32, ptr %134, align 8
  %136 = sext i32 %135 to i64
  %137 = getelementptr inbounds float, ptr %133, i64 %136
  store float %131, ptr %137, align 4
  %138 = load float, ptr %13, align 4
  %139 = getelementptr inbounds %class.dtObstacleAvoidanceDebugData, ptr %24, i32 0, i32 5
  %140 = load ptr, ptr %139, align 8
  %141 = getelementptr inbounds %class.dtObstacleAvoidanceDebugData, ptr %24, i32 0, i32 0
  %142 = load i32, ptr %141, align 8
  %143 = sext i32 %142 to i64
  %144 = getelementptr inbounds float, ptr %140, i64 %143
  store float %138, ptr %144, align 4
  %145 = load float, ptr %14, align 4
  %146 = getelementptr inbounds %class.dtObstacleAvoidanceDebugData, ptr %24, i32 0, i32 6
  %147 = load ptr, ptr %146, align 8
  %148 = getelementptr inbounds %class.dtObstacleAvoidanceDebugData, ptr %24, i32 0, i32 0
  %149 = load i32, ptr %148, align 8
  %150 = sext i32 %149 to i64
  %151 = getelementptr inbounds float, ptr %147, i64 %150
  store float %145, ptr %151, align 4
  %152 = load float, ptr %15, align 4
  %153 = getelementptr inbounds %class.dtObstacleAvoidanceDebugData, ptr %24, i32 0, i32 7
  %154 = load ptr, ptr %153, align 8
  %155 = getelementptr inbounds %class.dtObstacleAvoidanceDebugData, ptr %24, i32 0, i32 0
  %156 = load i32, ptr %155, align 8
  %157 = sext i32 %156 to i64
  %158 = getelementptr inbounds float, ptr %154, i64 %157
  store float %152, ptr %158, align 4
  %159 = load float, ptr %16, align 4
  %160 = getelementptr inbounds %class.dtObstacleAvoidanceDebugData, ptr %24, i32 0, i32 8
  %161 = load ptr, ptr %160, align 8
  %162 = getelementptr inbounds %class.dtObstacleAvoidanceDebugData, ptr %24, i32 0, i32 0
  %163 = load i32, ptr %162, align 8
  %164 = sext i32 %163 to i64
  %165 = getelementptr inbounds float, ptr %161, i64 %164
  store float %159, ptr %165, align 4
  %166 = getelementptr inbounds %class.dtObstacleAvoidanceDebugData, ptr %24, i32 0, i32 0
  %167 = load i32, ptr %166, align 8
  %168 = add nsw i32 %167, 1
  store i32 %168, ptr %166, align 8
  br label %169

169:                                              ; preds = %115, %30
  ret void
}