; Function Attrs: mustprogress uwtable
define void @_ZN28dtObstacleAvoidanceDebugData9addSampleEPKfffffff(ptr noundef nonnull align 8 captures(none) dereferenceable(64) %0, ptr noundef readonly captures(none) %1, float noundef %2, float noundef %3, float noundef %4, float noundef %5, float noundef %6, float noundef %7) local_unnamed_addr #0 align 2 {
  %9 = load i32, ptr %0, align 8
  %10 = getelementptr inbounds nuw i8, ptr %0, i64 4
  %11 = load i32, ptr %10, align 4
  %.not = icmp slt i32 %9, %11
  br i1 %.not, label %12, label %93

12:                                               ; preds = %8
  %13 = tail call noundef ptr @_Z21dtAssertFailGetCustomv()
  %14 = icmp ne ptr %13, null
  %15 = getelementptr inbounds nuw i8, ptr %0, i64 8
  %16 = load ptr, ptr %15, align 8
  %.not28 = icmp eq ptr %16, null
  %or.cond = select i1 %14, i1 %.not28, i1 false
  br i1 %or.cond, label %17, label %18

17:                                               ; preds = %12
  tail call void %13(ptr noundef nonnull @.str.2, ptr noundef nonnull @.str.1, i32 noundef 151)
  br label %18

18:                                               ; preds = %17, %12
  %19 = tail call noundef ptr @_Z21dtAssertFailGetCustomv()
  %20 = icmp ne ptr %19, null
  %21 = getelementptr inbounds nuw i8, ptr %0, i64 16
  %22 = load ptr, ptr %21, align 8
  %.not29 = icmp eq ptr %22, null
  %or.cond37 = select i1 %20, i1 %.not29, i1 false
  br i1 %or.cond37, label %23, label %24

23:                                               ; preds = %18
  tail call void %19(ptr noundef nonnull @.str.3, ptr noundef nonnull @.str.1, i32 noundef 152)
  br label %24

24:                                               ; preds = %23, %18
  %25 = tail call noundef ptr @_Z21dtAssertFailGetCustomv()
  %26 = icmp ne ptr %25, null
  %27 = getelementptr inbounds nuw i8, ptr %0, i64 24
  %28 = load ptr, ptr %27, align 8
  %.not30 = icmp eq ptr %28, null
  %or.cond39 = select i1 %26, i1 %.not30, i1 false
  br i1 %or.cond39, label %29, label %30

29:                                               ; preds = %24
  tail call void %25(ptr noundef nonnull @.str.4, ptr noundef nonnull @.str.1, i32 noundef 153)
  br label %30

30:                                               ; preds = %29, %24
  %31 = tail call noundef ptr @_Z21dtAssertFailGetCustomv()
  %32 = icmp ne ptr %31, null
  %33 = getelementptr inbounds nuw i8, ptr %0, i64 32
  %34 = load ptr, ptr %33, align 8
  %.not31 = icmp eq ptr %34, null
  %or.cond41 = select i1 %32, i1 %.not31, i1 false
  br i1 %or.cond41, label %35, label %36

35:                                               ; preds = %30
  tail call void %31(ptr noundef nonnull @.str.5, ptr noundef nonnull @.str.1, i32 noundef 154)
  br label %36

36:                                               ; preds = %35, %30
  %37 = tail call noundef ptr @_Z21dtAssertFailGetCustomv()
  %38 = icmp ne ptr %37, null
  %39 = getelementptr inbounds nuw i8, ptr %0, i64 40
  %40 = load ptr, ptr %39, align 8
  %.not32 = icmp eq ptr %40, null
  %or.cond43 = select i1 %38, i1 %.not32, i1 false
  br i1 %or.cond43, label %41, label %42

41:                                               ; preds = %36
  tail call void %37(ptr noundef nonnull @.str.6, ptr noundef nonnull @.str.1, i32 noundef 155)
  br label %42

42:                                               ; preds = %41, %36
  %43 = tail call noundef ptr @_Z21dtAssertFailGetCustomv()
  %44 = icmp ne ptr %43, null
  %45 = getelementptr inbounds nuw i8, ptr %0, i64 48
  %46 = load ptr, ptr %45, align 8
  %.not33 = icmp eq ptr %46, null
  %or.cond45 = select i1 %44, i1 %.not33, i1 false
  br i1 %or.cond45, label %47, label %48

47:                                               ; preds = %42
  tail call void %43(ptr noundef nonnull @.str.7, ptr noundef nonnull @.str.1, i32 noundef 156)
  br label %48

48:                                               ; preds = %47, %42
  %49 = tail call noundef ptr @_Z21dtAssertFailGetCustomv()
  %50 = icmp ne ptr %49, null
  %51 = getelementptr inbounds nuw i8, ptr %0, i64 56
  %52 = load ptr, ptr %51, align 8
  %.not34 = icmp eq ptr %52, null
  %or.cond47 = select i1 %50, i1 %.not34, i1 false
  br i1 %or.cond47, label %53, label %54

53:                                               ; preds = %48
  tail call void %49(ptr noundef nonnull @.str.8, ptr noundef nonnull @.str.1, i32 noundef 157)
  br label %54

54:                                               ; preds = %53, %48
  %55 = load ptr, ptr %15, align 8
  %56 = load i32, ptr %0, align 8
  %57 = mul nsw i32 %56, 3
  %58 = sext i32 %57 to i64
  %59 = getelementptr inbounds float, ptr %55, i64 %58
  %60 = load float, ptr %1, align 4
  store float %60, ptr %59, align 4
  %61 = getelementptr inbounds nuw i8, ptr %1, i64 4
  %62 = load float, ptr %61, align 4
  %63 = getelementptr inbounds nuw i8, ptr %59, i64 4
  store float %62, ptr %63, align 4
  %64 = getelementptr inbounds nuw i8, ptr %1, i64 8
  %65 = load float, ptr %64, align 4
  %66 = getelementptr inbounds nuw i8, ptr %59, i64 8
  store float %65, ptr %66, align 4
  %67 = load ptr, ptr %21, align 8
  %68 = load i32, ptr %0, align 8
  %69 = sext i32 %68 to i64
  %70 = getelementptr inbounds float, ptr %67, i64 %69
  store float %2, ptr %70, align 4
  %71 = load ptr, ptr %27, align 8
  %72 = load i32, ptr %0, align 8
  %73 = sext i32 %72 to i64
  %74 = getelementptr inbounds float, ptr %71, i64 %73
  store float %3, ptr %74, align 4
  %75 = load ptr, ptr %33, align 8
  %76 = load i32, ptr %0, align 8
  %77 = sext i32 %76 to i64
  %78 = getelementptr inbounds float, ptr %75, i64 %77
  store float %4, ptr %78, align 4
  %79 = load ptr, ptr %39, align 8
  %80 = load i32, ptr %0, align 8
  %81 = sext i32 %80 to i64
  %82 = getelementptr inbounds float, ptr %79, i64 %81
  store float %5, ptr %82, align 4
  %83 = load ptr, ptr %45, align 8
  %84 = load i32, ptr %0, align 8
  %85 = sext i32 %84 to i64
  %86 = getelementptr inbounds float, ptr %83, i64 %85
  store float %6, ptr %86, align 4
  %87 = load ptr, ptr %51, align 8
  %88 = load i32, ptr %0, align 8
  %89 = sext i32 %88 to i64
  %90 = getelementptr inbounds float, ptr %87, i64 %89
  store float %7, ptr %90, align 4
  %91 = load i32, ptr %0, align 8
  %92 = add nsw i32 %91, 1
  store i32 %92, ptr %0, align 8
  br label %93

93:                                               ; preds = %8, %54
  ret void
}